(lp0
VK.Alkema
p1
aVR Almekinders
p2
aVA Hossein
p3
aVB Beudeker
p4
aVS.Blumel
p5
aVGert de Boer
p6
aVJorrit Boer
p7
aVA Bosma
p8
aVH.Brocaar
p9
aVH. vd Brug
p10
aVI. Cuperus
p11
aVK. Dijkhof-Michels
p12
aVL van Dijk
p13
aVL.Dijk
p14
aVW. Dijkstra
p15
aVA van Dijk
p16
aVH. Driesten
p17
aVR. Dullaert
p18
aVR.van Eck
p19
aVR. Freund
p20
aVW.Funcke
p21
aVM vd Geest
p22
aVA van der Graaf
p23
aVM.Grasmeijer
p24
aVN.Grgurina
p25
aVP. Groenbroek
p26
aVJ. de Haas
p27
aVJ.F. Hak-Huitema
p28
aVG.Hartoungh
p29
aVA Heikens
p30
aVO van Helden
p31
aVA.van Hoof
p32
aVM de Hoog
p33
aVH. Hokwerda
p34
aVM.Hofstee
p35
aVM.Horsten
p36
aVC.S.van Hulten
p37
aVJ.IJbema
p38
aVA Jellinek
p39
aVC.P.Kan
p40
aVJ.C.M.Klaver
p41
aVB Koolhaas
p42
aVJ.Koehoorn
p43
aVJ.J.Koopmans
p44
aVW.Koopmans
p45
aVG. Lampers
p46
aVM. Laarman
p47
aVJ.F.Lens
p48
aVP.A.M.Logt
p49
aVB.E.Maas
p50
aVS.J. Nanninga
p51
aVM Nijzing
p52
aVL Nijdam
p53
aVG van Noord
p54
aVH.F.J.M.Pols
p55
aVM van Putten
p56
aVC. Quittek
p57
aVA. Reitsma
p58
aVC.Regtop
p59
aVP.Schoen
p60
aVP. Sinnema
p61
aVJ. van der Sluis
p62
aVS. Spekreijse
p63
aVD.A.Steijn
p64
aVJ.Staal
p65
aVM.Tavakoli
p66
aVN.van Tatenhove
p67
aVE. Tervooren
p68
aVA Toering
p69
aVG Versteeg
p70
aVWiko Veenvliet
p71
aVA.Visser
p72
aVM. Vis
p73
aVD. Volbeda
p74
aVP.M.Voorzanger
p75
aVE.de Vries
p76
aVA.deVries
p77
aVE Weistra
p78
aVR.Westerdijk
p79
aVU.A.de Weerdt
p80
aVJ van der Wijk
p81
aVL Willemse
p82
aVS.de Witt
p83
aVS. Wierda
p84
aVW. Wiersma
p85
aVK.van Woerkom
p86
aVK. van Wolferen
p87
aVN.N.Woltjer
p88
aVH.Zeedijk
p89
aVC Zillinger Molenaar
p90
aVP. Zijlstra
p91
a.