(lp0
VK.Alkema
p1
aVR Almekinders
p2
aVA Hossein
p3
aVB Beudeker
p4
aVS.Blumel
p5
aVGert de Boer
p6
aVJorrit Boer
p7
aVA Bosma
p8
aVH.Brocaar
p9
aVH. vd Brug
p10
aVI. Cuperus
p11
aVK. Dijkhof-Michels
p12
aVL van Dijk
p13
aVL.Dijk
p14
aVW. Dijkstra
p15
aVA van Dijk
p16
aVH. Driesten
p17
aVR. Dullaert
p18
aVR.van Eck
p19
aVR. Freund
p20
aVW.Funcke
p21
aVM vd Geest
p22
aVA van der Graaf
p23
aVM.Grasmeijer
p24
aVN.Grgurina
p25
aVP. Groenbroek
p26
aVJ. de Haas
p27
aVJ.F. Hak-Huitema
p28
aVG.Hartoungh
p29
aVA Heikens
p30
aVA.van Hoof
p31
aVM de Hoog
p32
aVH. Hokwerda
p33
aVM.Hofstee
p34
aVM.Horsten
p35
aVC.S.van Hulten
p36
aVJ.IJbema
p37
aVA Jellinek
p38
aVC.P.Kan
p39
aVJ.C.M.Klaver
p40
aVB Koolhaas
p41
aVJ.Koehoorn
p42
aVJ.J.Koopmans
p43
aVW.Koopmans
p44
aVG. Lampers
p45
aVM. Laarman
p46
aVJ.F.Lens
p47
aVP.A.M.Logt
p48
aVB.E.Maas
p49
aVS.J. Nanninga
p50
aVM Nijzing
p51
aVL Nijdam
p52
aVG van Noord
p53
aVM van Putten
p54
aVC. Quittek
p55
aVA. Reitsma
p56
aVC.Regtop
p57
aVP.Schoen
p58
aVP. Sinnema
p59
aVJ. van der Sluis
p60
aVS. Spekreijse
p61
aVD.A.Steijn
p62
aVJ.Staal
p63
aVM.Tavakoli
p64
aVN.van Tatenhove
p65
aVE. Tervooren
p66
aVA Toering
p67
aVG Versteeg
p68
aVWiko Veenvliet
p69
aVA.Visser
p70
aVM. Vis
p71
aVD. Volbeda
p72
aVP.M.Voorzanger
p73
aVE.de Vries
p74
aVA.deVries
p75
aVE Weistra
p76
aVR.Westerdijk
p77
aVU.A.de Weerdt
p78
aVJ van der Wijk
p79
aVL Willemse
p80
aVS.de Witt
p81
aVS. Wierda
p82
aVW. Wiersma
p83
aVK.van Woerkom
p84
aVK. van Wolferen
p85
aVN.N.Woltjer
p86
aVH.Zeedijk
p87
aVC Zillinger Molenaar
p88
aVP. Zijlstra
p89
a.